	.file	"stest.c"
	.text
	.globl	tb1
	.type	tb1, @function
tb1:
.LFB0:
	.cfi_startproc
	pushq	%rbp
	.cfi_def_cfa_offset 16
	.cfi_offset 6, -16
	movq	%rsp, %rbp
	.cfi_def_cfa_register 6
	movl	$1, %eax
	popq	%rbp
	.cfi_def_cfa 7, 8
	ret
	.cfi_endproc
.LFE0:
	.size	tb1, .-tb1
	.globl	tb
	.type	tb, @function
tb:
.LFB1:
	.cfi_startproc
	pushq	%rbp
	.cfi_def_cfa_offset 16
	.cfi_offset 6, -16
	movq	%rsp, %rbp
	.cfi_def_cfa_register 6
	subq	$16, %rsp
	movl	$0, %eax
	call	tb1
	movl	%eax, -4(%rbp)
	leave
	.cfi_def_cfa 7, 8
	ret
	.cfi_endproc
.LFE1:
	.size	tb, .-tb
	.globl	bar
	.type	bar, @function
bar:
.LFB2:
	.cfi_startproc
	pushq	%rbp
	.cfi_def_cfa_offset 16
	.cfi_offset 6, -16
	movq	%rsp, %rbp
	.cfi_def_cfa_register 6
	subq	$24, %rsp
	movl	%edi, -20(%rbp)
	movl	%esi, -24(%rbp)
	movl	-24(%rbp), %eax
	movl	-20(%rbp), %edx
	addl	%edx, %eax
	movl	%eax, -4(%rbp)
	movl	$0, %eax
	call	tb
	leave
	.cfi_def_cfa 7, 8
	ret
	.cfi_endproc
.LFE2:
	.size	bar, .-bar
	.globl	foo
	.type	foo, @function
foo:
.LFB3:
	.cfi_startproc
	pushq	%rbp
	.cfi_def_cfa_offset 16
	.cfi_offset 6, -16
	movq	%rsp, %rbp
	.cfi_def_cfa_register 6
	movl	$17, %esi
	movl	$5, %edi
	call	bar
	movq	stdout(%rip), %rax
	movq	%rax, %rdi
	movl	$0, %eax
	call	traceback
	popq	%rbp
	.cfi_def_cfa 7, 8
	ret
	.cfi_endproc
.LFE3:
	.size	foo, .-foo
	.globl	main
	.type	main, @function
main:
.LFB4:
	.cfi_startproc
	pushq	%rbp
	.cfi_def_cfa_offset 16
	.cfi_offset 6, -16
	movq	%rsp, %rbp
	.cfi_def_cfa_register 6
	subq	$16, %rsp
	movl	%edi, -4(%rbp)
	movq	%rsi, -16(%rbp)
	movl	$0, %eax
	call	foo
	movl	$0, %eax
	leave
	.cfi_def_cfa 7, 8
	ret
	.cfi_endproc
.LFE4:
	.size	main, .-main
	.ident	"GCC: (Ubuntu 4.8.2-19ubuntu1) 4.8.2"
	.section	.note.GNU-stack,"",@progbits
